target datalayout = "e-m:e-p270:32:32-p271:32:32-p272:64:64-i64:64-i128:128-f80:128-n8:16:32:64-S128"
target triple = "x86_64-pc-linux-gnu"

%struct.SurfaceDataRasInfo = type { %struct.SurfaceDataBounds, ptr, i32, i32, i32, i32, ptr, ptr, ptr, ptr, ptr, ptr, i32, %union.anon.0 }
%struct.SurfaceDataBounds = type { i32, i32, i32, i32 }
%union.anon.0 = type { ptr, [56 x i8] }

; Function Attrs: nounwind uwtable
define hidden void @ByteIndexedBmToIntBgrXparBgCopy(ptr noundef %0, ptr noundef %1, i32 noundef %2, i32 noundef %3, i32 noundef %4, ptr noundef %5, ptr noundef %6, ptr noundef %7, ptr noundef %8) #1 {
  %10 = alloca ptr, align 8
  %11 = alloca ptr, align 8
  %12 = alloca i32, align 4
  %13 = alloca i32, align 4
  %14 = alloca i32, align 4
  %15 = alloca ptr, align 8
  %16 = alloca ptr, align 8
  %17 = alloca ptr, align 8
  %18 = alloca ptr, align 8
  %19 = alloca [256 x i32], align 16
  %20 = alloca ptr, align 8
  %21 = alloca i32, align 4
  %22 = alloca ptr, align 8
  %23 = alloca i32, align 4
  %24 = alloca i32, align 4
  %25 = alloca ptr, align 8
  %26 = alloca ptr, align 8
  %27 = alloca i32, align 4
  %28 = alloca i32, align 4
  %29 = alloca i32, align 4
  %30 = alloca i32, align 4
  store ptr %0, ptr %10, align 8
  store ptr %1, ptr %11, align 8
  store i32 %2, ptr %12, align 4
  store i32 %3, ptr %13, align 4
  store i32 %4, ptr %14, align 4
  store ptr %5, ptr %15, align 8
  store ptr %6, ptr %16, align 8
  store ptr %7, ptr %17, align 8
  store ptr %8, ptr %18, align 8
  br label %31

31:                                               ; preds = %9
  %32 = load ptr, ptr %15, align 8
  %33 = getelementptr inbounds %struct.SurfaceDataRasInfo, ptr %32, i32 0, i32 6
  %34 = load ptr, ptr %33, align 8
  store ptr %34, ptr %20, align 8
  %35 = load ptr, ptr %15, align 8
  %36 = getelementptr inbounds %struct.SurfaceDataRasInfo, ptr %35, i32 0, i32 5
  %37 = load i32, ptr %36, align 4
  store i32 %37, ptr %21, align 4
  %38 = load i32, ptr %21, align 4
  %39 = icmp uge i32 %38, 256
  br i1 %39, label %40, label %41

40:                                               ; preds = %31
  store i32 256, ptr %21, align 4
  br label %55

41:                                               ; preds = %31
  %42 = load i32, ptr %21, align 4
  %43 = zext i32 %42 to i64
  %44 = getelementptr inbounds [256 x i32], ptr %19, i64 0, i64 %43
  store ptr %44, ptr %22, align 8
  br label %45

45:                                               ; preds = %49, %41
  %46 = load i32, ptr %14, align 4
  %47 = load ptr, ptr %22, align 8
  %48 = getelementptr inbounds i32, ptr %47, i64 0
  store i32 %46, ptr %48, align 4
  br label %49

49:                                               ; preds = %45
  %50 = load ptr, ptr %22, align 8
  %51 = getelementptr inbounds i32, ptr %50, i32 1
  store ptr %51, ptr %22, align 8
  %52 = getelementptr inbounds [256 x i32], ptr %19, i64 0, i64 256
  %53 = icmp ult ptr %51, %52
  br i1 %53, label %45, label %54, !llvm.loop !39

54:                                               ; preds = %49
  br label %55

55:                                               ; preds = %54, %40
  br label %56

56:                                               ; preds = %55
  store i32 0, ptr %23, align 4
  br label %57

57:                                               ; preds = %86, %56
  br label %58

58:                                               ; preds = %57
  %59 = load ptr, ptr %20, align 8
  %60 = load i32, ptr %23, align 4
  %61 = zext i32 %60 to i64
  %62 = getelementptr inbounds i32, ptr %59, i64 %61
  %63 = load i32, ptr %62, align 4
  store i32 %63, ptr %24, align 4
  %64 = load i32, ptr %24, align 4
  %65 = icmp slt i32 %64, 0
  br i1 %65, label %66, label %79

66:                                               ; preds = %58
  %67 = load i32, ptr %24, align 4
  %68 = shl i32 %67, 16
  %69 = load i32, ptr %24, align 4
  %70 = and i32 %69, 65280
  %71 = or i32 %68, %70
  %72 = load i32, ptr %24, align 4
  %73 = ashr i32 %72, 16
  %74 = and i32 %73, 255
  %75 = or i32 %71, %74
  %76 = load i32, ptr %23, align 4
  %77 = zext i32 %76 to i64
  %78 = getelementptr inbounds [256 x i32], ptr %19, i64 0, i64 %77
  store i32 %75, ptr %78, align 4
  br label %84

79:                                               ; preds = %58
  %80 = load i32, ptr %14, align 4
  %81 = load i32, ptr %23, align 4
  %82 = zext i32 %81 to i64
  %83 = getelementptr inbounds [256 x i32], ptr %19, i64 0, i64 %82
  store i32 %80, ptr %83, align 4
  br label %84

84:                                               ; preds = %79, %66
  br label %85

85:                                               ; preds = %84
  br label %86

86:                                               ; preds = %85
  %87 = load i32, ptr %23, align 4
  %88 = add i32 %87, 1
  store i32 %88, ptr %23, align 4
  %89 = load i32, ptr %21, align 4
  %90 = icmp ult i32 %88, %89
  br i1 %90, label %57, label %91, !llvm.loop !40

91:                                               ; preds = %86
  br label %92

92:                                               ; preds = %91
  br label %93

93:                                               ; preds = %92
  br label %94

94:                                               ; preds = %93
  %95 = load ptr, ptr %10, align 8
  store ptr %95, ptr %25, align 8
  %96 = load ptr, ptr %11, align 8
  store ptr %96, ptr %26, align 8
  %97 = load ptr, ptr %15, align 8
  %98 = getelementptr inbounds %struct.SurfaceDataRasInfo, ptr %97, i32 0, i32 4
  %99 = load i32, ptr %98, align 8
  store i32 %99, ptr %27, align 4
  %100 = load ptr, ptr %16, align 8
  %101 = getelementptr inbounds %struct.SurfaceDataRasInfo, ptr %100, i32 0, i32 4
  %102 = load i32, ptr %101, align 8
  store i32 %102, ptr %28, align 4
  %103 = load i32, ptr %12, align 4
  %104 = mul i32 %103, 1
  %105 = load i32, ptr %27, align 4
  %106 = sub i32 %105, %104
  store i32 %106, ptr %27, align 4
  %107 = load i32, ptr %12, align 4
  %108 = mul i32 %107, 4
  %109 = load i32, ptr %28, align 4
  %110 = sub i32 %109, %108
  store i32 %110, ptr %28, align 4
  br label %111

111:                                              ; preds = %150, %94
  %112 = load i32, ptr %12, align 4
  store i32 %112, ptr %29, align 4
  br label %113

113:                                              ; preds = %133, %111
  br label %114

114:                                              ; preds = %113
  %115 = load ptr, ptr %25, align 8
  %116 = getelementptr inbounds i8, ptr %115, i64 0
  %117 = load i8, ptr %116, align 1
  %118 = zext i8 %117 to i64
  %119 = getelementptr inbounds [256 x i32], ptr %19, i64 0, i64 %118
  %120 = load i32, ptr %119, align 4
  store i32 %120, ptr %30, align 4
  %121 = load i32, ptr %30, align 4
  %122 = load ptr, ptr %26, align 8
  %123 = getelementptr inbounds i32, ptr %122, i64 0
  store i32 %121, ptr %123, align 4
  br label %124

124:                                              ; preds = %114
  %125 = load ptr, ptr %25, align 8
  %126 = ptrtoint ptr %125 to i64
  %127 = add nsw i64 %126, 1
  %128 = inttoptr i64 %127 to ptr
  store ptr %128, ptr %25, align 8
  %129 = load ptr, ptr %26, align 8
  %130 = ptrtoint ptr %129 to i64
  %131 = add nsw i64 %130, 4
  %132 = inttoptr i64 %131 to ptr
  store ptr %132, ptr %26, align 8
  br label %133

133:                                              ; preds = %124
  %134 = load i32, ptr %29, align 4
  %135 = add i32 %134, -1
  store i32 %135, ptr %29, align 4
  %136 = icmp ugt i32 %135, 0
  br i1 %136, label %113, label %137, !llvm.loop !41

137:                                              ; preds = %133
  %138 = load ptr, ptr %25, align 8
  %139 = ptrtoint ptr %138 to i64
  %140 = load i32, ptr %27, align 4
  %141 = sext i32 %140 to i64
  %142 = add nsw i64 %139, %141
  %143 = inttoptr i64 %142 to ptr
  store ptr %143, ptr %25, align 8
  %144 = load ptr, ptr %26, align 8
  %145 = ptrtoint ptr %144 to i64
  %146 = load i32, ptr %28, align 4
  %147 = sext i32 %146 to i64
  %148 = add nsw i64 %145, %147
  %149 = inttoptr i64 %148 to ptr
  store ptr %149, ptr %26, align 8
  br label %150

150:                                              ; preds = %137
  %151 = load i32, ptr %13, align 4
  %152 = add i32 %151, -1
  store i32 %152, ptr %13, align 4
  %153 = icmp ugt i32 %152, 0
  br i1 %153, label %111, label %154, !llvm.loop !42

154:                                              ; preds = %150
  br label %155

155:                                              ; preds = %154
  ret void
}