; Function Attrs: nofree norecurse nosync nounwind memory(readwrite, inaccessiblemem: none) uwtable
define hidden void @ByteIndexedBmToIntBgrXparBgCopy(ptr noundef %0, ptr noundef %1, i32 noundef %2, i32 noundef %3, i32 noundef %4, ptr nocapture noundef readonly %5, ptr nocapture noundef readonly %6, ptr nocapture readnone %7, ptr nocapture readnone %8) #1 {
  %10 = alloca [256 x i32], align 16
  %11 = getelementptr inbounds i8, ptr %5, i64 40
  %12 = load ptr, ptr %11, align 8
  %13 = getelementptr inbounds i8, ptr %5, i64 36
  %14 = load i32, ptr %13, align 4
  %15 = icmp ugt i32 %14, 255
  br i1 %15, label %.loopexit, label %16

16:                                               ; preds = %9
  %17 = shl nuw nsw i32 %14, 2
  %.idx = zext nneg i32 %17 to i64
  br label %18

18:                                               ; preds = %18, %16
  %.043.idx = phi i64 [ %.idx, %16 ], [ %.043.add, %18 ]
  %.043.ptr = getelementptr inbounds i8, ptr %10, i64 %.043.idx
  store i32 %4, ptr %.043.ptr, align 4
  %.043.add = add nuw nsw i64 %.043.idx, 4
  %19 = icmp ult i64 %.043.idx, 1020
  br i1 %19, label %18, label %.loopexit, !llvm.loop !35

.loopexit:                                        ; preds = %18, %9
  %.041 = phi i32 [ 256, %9 ], [ %14, %18 ]
  %umax = tail call i32 @llvm.umax.i32(i32 %.041, i32 1)
  %wide.trip.count = zext nneg i32 %umax to i64
  br label %20

20:                                               ; preds = %31, %.loopexit
  %indvars.iv = phi i64 [ %indvars.iv.next, %31 ], [ 0, %.loopexit ]
  %21 = getelementptr inbounds i32, ptr %12, i64 %indvars.iv
  %22 = load i32, ptr %21, align 4
  %23 = icmp slt i32 %22, 0
  br i1 %23, label %24, label %31

24:                                               ; preds = %20
  %25 = shl i32 %22, 16
  %26 = and i32 %22, 65280
  %27 = or disjoint i32 %25, %26
  %28 = lshr i32 %22, 16
  %29 = and i32 %28, 255
  %30 = or disjoint i32 %27, %29
  br label %31

31:                                               ; preds = %20, %24
  %.sink = phi i32 [ %30, %24 ], [ %4, %20 ]
  %32 = getelementptr inbounds [256 x i32], ptr %10, i64 0, i64 %indvars.iv
  store i32 %.sink, ptr %32, align 4
  %indvars.iv.next = add nuw nsw i64 %indvars.iv, 1
  %exitcond.not = icmp eq i64 %indvars.iv.next, %wide.trip.count
  br i1 %exitcond.not, label %33, label %20, !llvm.loop !36

33:                                               ; preds = %31
  %34 = getelementptr inbounds i8, ptr %5, i64 32
  %35 = load i32, ptr %34, align 8
  %36 = getelementptr inbounds i8, ptr %6, i64 32
  %37 = load i32, ptr %36, align 8
  %38 = sub i32 %35, %2
  %39 = shl i32 %2, 2
  %40 = sub i32 %37, %39
  %41 = sext i32 %38 to i64
  %42 = sext i32 %40 to i64
  br label %43

43:                                               ; preds = %56, %33
  %.039 = phi ptr [ %0, %33 ], [ %58, %56 ]
  %.038 = phi ptr [ %1, %33 ], [ %60, %56 ]
  %.0 = phi i32 [ %3, %33 ], [ %61, %56 ]
  br label %44

44:                                               ; preds = %44, %43
  %.140 = phi ptr [ %.039, %43 ], [ %51, %44 ]
  %.1 = phi ptr [ %.038, %43 ], [ %54, %44 ]
  %.037 = phi i32 [ %2, %43 ], [ %55, %44 ]
  %45 = load i8, ptr %.140, align 1
  %46 = zext i8 %45 to i64
  %47 = getelementptr inbounds [256 x i32], ptr %10, i64 0, i64 %46
  %48 = load i32, ptr %47, align 4
  store i32 %48, ptr %.1, align 4
  %49 = ptrtoint ptr %.140 to i64
  %50 = add nsw i64 %49, 1
  %51 = inttoptr i64 %50 to ptr
  %52 = ptrtoint ptr %.1 to i64
  %53 = add nsw i64 %52, 4
  %54 = inttoptr i64 %53 to ptr
  %55 = add i32 %.037, -1
  %.not = icmp eq i32 %55, 0
  br i1 %.not, label %56, label %44, !llvm.loop !37

56:                                               ; preds = %44
  %57 = add nsw i64 %50, %41
  %58 = inttoptr i64 %57 to ptr
  %59 = add nsw i64 %53, %42
  %60 = inttoptr i64 %59 to ptr
  %61 = add i32 %.0, -1
  %.not49 = icmp eq i32 %61, 0
  br i1 %.not49, label %62, label %43, !llvm.loop !38

62:                                               ; preds = %56
  ret void
}